; Function Attrs: inlinehint mustprogress nounwind uwtable
define internal void @"_ZN5arrow8internal6FnOnceIFvRKNS_10FutureImplEEE6FnImplINS_6FutureISt6vectorINS_6ResultINS0_5EmptyEEESaISC_EEE20WrapResultOnComplete8CallbackINSF_14ThenOnCompleteIZNS_11AllFinishedERKS9_INS8_ISB_EESaISJ_EEE3$_0NSF_17PassthruOnFailureISO_EEEEEEED2Ev"(ptr noundef nonnull align 8 captures(none) dereferenceable(32) initializes((0, 8)) %0) unnamed_addr #7 align 2 personality ptr @__gxx_personality_v0 {
  store ptr getelementptr inbounds nuw inrange(-16, 24) (i8, ptr @"_ZTVN5arrow8internal6FnOnceIFvRKNS_10FutureImplEEE6FnImplINS_6FutureISt6vectorINS_6ResultINS0_5EmptyEEESaISC_EEE20WrapResultOnComplete8CallbackINSF_14ThenOnCompleteIZNS_11AllFinishedERKS9_INS8_ISB_EESaISJ_EEE3$_0NSF_17PassthruOnFailureISO_EEEEEEEE", i64 16), ptr %0, align 8, !tbaa !6
  %2 = getelementptr inbounds nuw i8, ptr %0, i64 24
  %.val = load ptr, ptr %2, align 8, !tbaa !43
  %.not.i.i.i.i.i = icmp eq ptr %.val, null
  br i1 %.not.i.i.i.i.i, label %"_ZN5arrow6FutureISt6vectorINS_6ResultINS_8internal5EmptyEEESaIS5_EEE20WrapResultOnComplete8CallbackINS8_14ThenOnCompleteIZNS_11AllFinishedERKS1_INS0_IS4_EESaISC_EEE3$_0NS8_17PassthruOnFailureISH_EEEEED2Ev.exit", label %3

3:                                                ; preds = %1
  %4 = getelementptr inbounds nuw i8, ptr %.val, i64 8
  %5 = load atomic i64, ptr %4 acquire, align 8
  %6 = icmp eq i64 %5, 4294967297
  %7 = trunc i64 %5 to i32
  br i1 %6, label %8, label %16

8:                                                ; preds = %3
  store i32 0, ptr %4, align 8, !tbaa !50
  %9 = getelementptr inbounds nuw i8, ptr %.val, i64 12
  store i32 0, ptr %9, align 4, !tbaa !53
  %10 = load ptr, ptr %.val, align 8, !tbaa !6
  %11 = getelementptr inbounds nuw i8, ptr %10, i64 16
  %12 = load ptr, ptr %11, align 8
  tail call void %12(ptr noundef nonnull align 8 dereferenceable(16) %.val) #24
  %13 = load ptr, ptr %.val, align 8, !tbaa !6
  %14 = getelementptr inbounds nuw i8, ptr %13, i64 24
  %15 = load ptr, ptr %14, align 8
  tail call void %15(ptr noundef nonnull align 8 dereferenceable(16) %.val) #24
  br label %"_ZN5arrow6FutureISt6vectorINS_6ResultINS_8internal5EmptyEEESaIS5_EEE20WrapResultOnComplete8CallbackINS8_14ThenOnCompleteIZNS_11AllFinishedERKS1_INS0_IS4_EESaISC_EEE3$_0NS8_17PassthruOnFailureISH_EEEEED2Ev.exit"

16:                                               ; preds = %3
  %17 = load i8, ptr @__libc_single_threaded, align 1, !tbaa !54
  %.not.i.i.i.i.i.i = icmp eq i8 %17, 0
  br i1 %.not.i.i.i.i.i.i, label %20, label %18

18:                                               ; preds = %16
  %19 = add nsw i32 %7, -1
  store i32 %19, ptr %4, align 4, !tbaa !55
  br label %_ZN9__gnu_cxx27__exchange_and_add_dispatchEPii.exit.i.i.i.i.i.i

20:                                               ; preds = %16
  %21 = atomicrmw volatile add ptr %4, i32 -1 acq_rel, align 4
  br label %_ZN9__gnu_cxx27__exchange_and_add_dispatchEPii.exit.i.i.i.i.i.i

_ZN9__gnu_cxx27__exchange_and_add_dispatchEPii.exit.i.i.i.i.i.i: ; preds = %20, %18
  %.0.i.i.i.i.i.i.i = phi i32 [ %7, %18 ], [ %21, %20 ]
  %22 = icmp eq i32 %.0.i.i.i.i.i.i.i, 1
  br i1 %22, label %23, label %"_ZN5arrow6FutureISt6vectorINS_6ResultINS_8internal5EmptyEEESaIS5_EEE20WrapResultOnComplete8CallbackINS8_14ThenOnCompleteIZNS_11AllFinishedERKS1_INS0_IS4_EESaISC_EEE3$_0NS8_17PassthruOnFailureISH_EEEEED2Ev.exit", !prof !56

23:                                               ; preds = %_ZN9__gnu_cxx27__exchange_and_add_dispatchEPii.exit.i.i.i.i.i.i
  tail call void @_ZNSt16_Sp_counted_baseILN9__gnu_cxx12_Lock_policyE2EE24_M_release_last_use_coldEv(ptr noundef nonnull align 8 dereferenceable(16) %.val) #24
  br label %"_ZN5arrow6FutureISt6vectorINS_6ResultINS_8internal5EmptyEEESaIS5_EEE20WrapResultOnComplete8CallbackINS8_14ThenOnCompleteIZNS_11AllFinishedERKS1_INS0_IS4_EESaISC_EEE3$_0NS8_17PassthruOnFailureISH_EEEEED2Ev.exit"

"_ZN5arrow6FutureISt6vectorINS_6ResultINS_8internal5EmptyEEESaIS5_EEE20WrapResultOnComplete8CallbackINS8_14ThenOnCompleteIZNS_11AllFinishedERKS1_INS0_IS4_EESaISC_EEE3$_0NS8_17PassthruOnFailureISH_EEEEED2Ev.exit": ; preds = %1, %8, %_ZN9__gnu_cxx27__exchange_and_add_dispatchEPii.exit.i.i.i.i.i.i, %23
  ret void
}